; ModuleID = '36/828.c'
source_filename = "36/828.c"
target datalayout = "e-m:e-p270:32:32-p271:32:32-p272:64:64-i64:64-f80:128-n8:16:32:64-S128"
target triple = "x86_64-pc-linux-gnu"

@.str = private unnamed_addr constant [4 x i8] c"YES\00", align 1
@.str.1 = private unnamed_addr constant [3 x i8] c"NO\00", align 1

; Function Attrs: noinline nounwind uwtable
define dso_local void @main() #0 {
  %1 = alloca i32, align 4
  %2 = alloca i32, align 4
  %3 = alloca i32, align 4
  %4 = alloca i32, align 4
  %5 = alloca i32, align 4
  %6 = alloca i32, align 4
  %7 = alloca i32, align 4
  %8 = alloca [200 x i8], align 16
  %9 = alloca [200 x i8], align 16
  %10 = alloca [200 x i8], align 16
  %11 = bitcast [200 x i8]* %9 to i8*
  call void @llvm.memset.p0i8.i64(i8* align 16 %11, i8 0, i64 200, i1 false)
  %12 = bitcast [200 x i8]* %10 to i8*
  call void @llvm.memset.p0i8.i64(i8* align 16 %12, i8 0, i64 200, i1 false)
  %13 = getelementptr inbounds [200 x i8], [200 x i8]* %8, i64 0, i64 0
  %14 = call i32 (i8*, ...) bitcast (i32 (...)* @gets to i32 (i8*, ...)*)(i8* %13)
  %15 = getelementptr inbounds [200 x i8], [200 x i8]* %8, i64 0, i64 0
  %16 = call i64 @strlen(i8* %15) #4
  %17 = trunc i64 %16 to i32
  store i32 %17, i32* %7, align 4
  store i32 0, i32* %4, align 4
  br label %18

18:                                               ; preds = %31, %0
  %19 = load i32, i32* %4, align 4
  %20 = load i32, i32* %7, align 4
  %21 = icmp slt i32 %19, %20
  br i1 %21, label %22, label %34

22:                                               ; preds = %18
  %23 = load i32, i32* %4, align 4
  %24 = sext i32 %23 to i64
  %25 = getelementptr inbounds [200 x i8], [200 x i8]* %8, i64 0, i64 %24
  %26 = load i8, i8* %25, align 1
  %27 = sext i8 %26 to i32
  %28 = icmp eq i32 %27, 32
  br i1 %28, label %29, label %30

29:                                               ; preds = %22
  br label %34

30:                                               ; preds = %22
  br label %31

31:                                               ; preds = %30
  %32 = load i32, i32* %4, align 4
  %33 = add nsw i32 %32, 1
  store i32 %33, i32* %4, align 4
  br label %18

34:                                               ; preds = %29, %18
  store i32 0, i32* %2, align 4
  br label %35

35:                                               ; preds = %70, %34
  %36 = load i32, i32* %2, align 4
  %37 = load i32, i32* %4, align 4
  %38 = icmp slt i32 %36, %37
  br i1 %38, label %39, label %73

39:                                               ; preds = %35
  %40 = load i32, i32* %4, align 4
  %41 = add nsw i32 %40, 1
  store i32 %41, i32* %3, align 4
  br label %42

42:                                               ; preds = %66, %39
  %43 = load i32, i32* %3, align 4
  %44 = load i32, i32* %7, align 4
  %45 = icmp slt i32 %43, %44
  br i1 %45, label %46, label %69

46:                                               ; preds = %42
  %47 = load i32, i32* %3, align 4
  %48 = sext i32 %47 to i64
  %49 = getelementptr inbounds [200 x i8], [200 x i8]* %8, i64 0, i64 %48
  %50 = load i8, i8* %49, align 1
  %51 = sext i8 %50 to i32
  %52 = load i32, i32* %2, align 4
  %53 = sext i32 %52 to i64
  %54 = getelementptr inbounds [200 x i8], [200 x i8]* %8, i64 0, i64 %53
  %55 = load i8, i8* %54, align 1
  %56 = sext i8 %55 to i32
  %57 = icmp eq i32 %51, %56
  br i1 %57, label %58, label %65

58:                                               ; preds = %46
  %59 = load i32, i32* %2, align 4
  %60 = sext i32 %59 to i64
  %61 = getelementptr inbounds [200 x i8], [200 x i8]* %9, i64 0, i64 %60
  store i8 1, i8* %61, align 1
  %62 = load i32, i32* %3, align 4
  %63 = sext i32 %62 to i64
  %64 = getelementptr inbounds [200 x i8], [200 x i8]* %8, i64 0, i64 %63
  store i8 95, i8* %64, align 1
  br label %69

65:                                               ; preds = %46
  br label %66

66:                                               ; preds = %65
  %67 = load i32, i32* %3, align 4
  %68 = add nsw i32 %67, 1
  store i32 %68, i32* %3, align 4
  br label %42

69:                                               ; preds = %58, %42
  br label %70

70:                                               ; preds = %69
  %71 = load i32, i32* %2, align 4
  %72 = add nsw i32 %71, 1
  store i32 %72, i32* %2, align 4
  br label %35

73:                                               ; preds = %35
  store i32 0, i32* %5, align 4
  store i32 0, i32* %2, align 4
  br label %74

74:                                               ; preds = %87, %73
  %75 = load i32, i32* %2, align 4
  %76 = load i32, i32* %4, align 4
  %77 = icmp slt i32 %75, %76
  br i1 %77, label %78, label %90

78:                                               ; preds = %74
  %79 = load i32, i32* %2, align 4
  %80 = sext i32 %79 to i64
  %81 = getelementptr inbounds [200 x i8], [200 x i8]* %9, i64 0, i64 %80
  %82 = load i8, i8* %81, align 1
  %83 = sext i8 %82 to i32
  %84 = icmp eq i32 %83, 0
  br i1 %84, label %85, label %86

85:                                               ; preds = %78
  br label %90

86:                                               ; preds = %78
  br label %87

87:                                               ; preds = %86
  %88 = load i32, i32* %2, align 4
  %89 = add nsw i32 %88, 1
  store i32 %89, i32* %2, align 4
  br label %74

90:                                               ; preds = %85, %74
  %91 = load i32, i32* %2, align 4
  %92 = load i32, i32* %4, align 4
  %93 = icmp eq i32 %91, %92
  br i1 %93, label %94, label %95

94:                                               ; preds = %90
  store i32 1, i32* %5, align 4
  br label %95

95:                                               ; preds = %94, %90
  %96 = load i32, i32* %5, align 4
  %97 = icmp eq i32 %96, 1
  br i1 %97, label %98, label %106

98:                                               ; preds = %95
  %99 = load i32, i32* %4, align 4
  %100 = mul nsw i32 %99, 2
  %101 = load i32, i32* %7, align 4
  %102 = sub nsw i32 %101, 1
  %103 = icmp eq i32 %100, %102
  br i1 %103, label %104, label %106

104:                                              ; preds = %98
  %105 = call i32 (i8*, ...) @printf(i8* getelementptr inbounds ([4 x i8], [4 x i8]* @.str, i64 0, i64 0))
  br label %108

106:                                              ; preds = %98, %95
  %107 = call i32 (i8*, ...) @printf(i8* getelementptr inbounds ([3 x i8], [3 x i8]* @.str.1, i64 0, i64 0))
  br label %108

108:                                              ; preds = %106, %104
  ret void
}

; Function Attrs: argmemonly nounwind willreturn
declare void @llvm.memset.p0i8.i64(i8* nocapture writeonly, i8, i64, i1 immarg) #1

declare dso_local i32 @gets(...) #2

; Function Attrs: nounwind readonly
declare dso_local i64 @strlen(i8*) #3

declare dso_local i32 @printf(i8*, ...) #2


!llvm.module.flags = !{!0}
!llvm.ident = !{!1}

!0 = !{i32 1, !"wchar_size", i32 4}
!1 = !{!"clang version 10.0.0-4ubuntu1 "}
